; Function Attrs: inlinehint nounwind uwtable
define internal fastcc void @Gia_ManSuperCollectAnd_rec(ptr noundef readonly captures(none) %0, ptr noundef %1) unnamed_addr #3 {
  %3 = getelementptr i8, ptr %0, i64 32
  %4 = getelementptr inbounds nuw i8, ptr %0, i64 960
  %5 = ptrtoint ptr %1 to i64
  %6 = and i64 %5, 1
  %.not23 = icmp eq i64 %6, 0
  br i1 %.not23, label %.lr.ph, label %Gia_ObjIsAndReal.exit.thread

.lr.ph:                                           ; preds = %2
  %7 = getelementptr i8, ptr %0, i64 40
  %8 = getelementptr i8, ptr %0, i64 144
  br label %9

9:                                                ; preds = %.lr.ph, %tailrecurse
  %10 = phi i64 [ %5, %.lr.ph ], [ %85, %tailrecurse ]
  %.tr2124 = phi ptr [ %1, %.lr.ph ], [ %86, %tailrecurse ]
  %.val.i = load i64, ptr %.tr2124, align 4
  %11 = and i64 %.val.i, 2147483648
  %.not.i.i = icmp ne i64 %11, 0
  %12 = and i64 %.val.i, 536870911
  %13 = icmp eq i64 %12, 536870911
  %narrow.i.not.i = or i1 %.not.i.i, %13
  br i1 %narrow.i.not.i, label %Gia_ObjIsAndReal.exit.thread, label %14

14:                                               ; preds = %9
  %15 = trunc i64 %.val.i to i32
  %16 = and i32 %15, 536870911
  %17 = lshr i64 %.val.i, 32
  %18 = trunc nuw i64 %17 to i32
  %19 = and i32 %18, 536870911
  %20 = icmp samesign ugt i32 %16, %19
  br i1 %20, label %21, label %Gia_ObjIsAndReal.exit.thread

21:                                               ; preds = %14
  %.val7.i = load ptr, ptr %7, align 8, !tbaa !53
  %.not.i.i.i = icmp eq ptr %.val7.i, null
  %.val15.pre = load ptr, ptr %3, align 8, !tbaa !46
  %.pre = ptrtoint ptr %.val15.pre to i64
  %.pre38 = sub i64 %10, %.pre
  %.pre40 = sdiv exact i64 %.pre38, 12
  %.pre42 = shl i64 %.pre40, 32
  %.pre43 = ashr exact i64 %.pre42, 30
  br i1 %.not.i.i.i, label %Gia_ObjIsAndReal.exit.thread18, label %Gia_ObjIsAndReal.exit

Gia_ObjIsAndReal.exit:                            ; preds = %21
  %22 = getelementptr inbounds i8, ptr %.val7.i, i64 %.pre43
  %23 = load i32, ptr %22, align 4, !tbaa !38
  %.not20 = icmp eq i32 %23, 0
  br i1 %.not20, label %Gia_ObjIsAndReal.exit.thread18, label %Gia_ObjIsAndReal.exit.thread

Gia_ObjIsAndReal.exit.thread18:                   ; preds = %21, %Gia_ObjIsAndReal.exit
  %.val16 = load ptr, ptr %8, align 8, !tbaa !50
  %24 = getelementptr inbounds i8, ptr %.val16, i64 %.pre43
  %25 = load i32, ptr %24, align 4, !tbaa !38
  %26 = icmp sgt i32 %25, 1
  br i1 %26, label %Gia_ObjIsAndReal.exit.thread, label %27

27:                                               ; preds = %Gia_ObjIsAndReal.exit.thread18
  %28 = load ptr, ptr %4, align 8, !tbaa !91
  %29 = getelementptr i8, ptr %28, i64 4
  %.val = load i32, ptr %29, align 4, !tbaa !45
  %30 = icmp sgt i32 %.val, 100
  br i1 %30, label %Gia_ObjIsAndReal.exit.thread, label %tailrecurse

Gia_ObjIsAndReal.exit.thread:                     ; preds = %tailrecurse, %Gia_ObjIsAndReal.exit, %Gia_ObjIsAndReal.exit.thread18, %27, %14, %9, %2
  %.lcssa22 = phi i64 [ %5, %2 ], [ %10, %9 ], [ %10, %14 ], [ %10, %27 ], [ %10, %Gia_ObjIsAndReal.exit.thread18 ], [ %10, %Gia_ObjIsAndReal.exit ], [ %85, %tailrecurse ]
  %.lcssa = phi i32 [ 1, %2 ], [ 0, %9 ], [ 0, %14 ], [ 0, %27 ], [ 0, %Gia_ObjIsAndReal.exit.thread18 ], [ 0, %Gia_ObjIsAndReal.exit ], [ 1, %tailrecurse ]
  %31 = load ptr, ptr %4, align 8, !tbaa !91
  %.val14 = load ptr, ptr %3, align 8, !tbaa !46
  %32 = getelementptr inbounds nuw i8, ptr %31, i64 4
  %33 = load i32, ptr %32, align 4, !tbaa !45
  %34 = load i32, ptr %31, align 8, !tbaa !47
  %35 = icmp eq i32 %33, %34
  br i1 %35, label %36, label %.Vec_IntGrow.exit10_crit_edge.i

.Vec_IntGrow.exit10_crit_edge.i:                  ; preds = %Gia_ObjIsAndReal.exit.thread
  %.phi.trans.insert.i = getelementptr inbounds nuw i8, ptr %31, i64 8
  %.pre.i = load ptr, ptr %.phi.trans.insert.i, align 8, !tbaa !36
  br label %Vec_IntPush.exit

36:                                               ; preds = %Gia_ObjIsAndReal.exit.thread
  %37 = icmp slt i32 %33, 16
  br i1 %37, label %38, label %46

38:                                               ; preds = %36
  %39 = getelementptr inbounds nuw i8, ptr %31, i64 8
  %40 = load ptr, ptr %39, align 8, !tbaa !36
  %.not9.i.i = icmp eq ptr %40, null
  br i1 %.not9.i.i, label %43, label %41

41:                                               ; preds = %38
  %42 = tail call dereferenceable_or_null(64) ptr @realloc(ptr noundef nonnull %40, i64 noundef 64) #29
  br label %Vec_IntGrow.exit.i

43:                                               ; preds = %38
  %44 = tail call noalias dereferenceable_or_null(64) ptr @malloc(i64 noundef 64) #28
  br label %Vec_IntGrow.exit.i

Vec_IntGrow.exit.i:                               ; preds = %43, %41
  %45 = phi ptr [ %42, %41 ], [ %44, %43 ]
  store ptr %45, ptr %39, align 8, !tbaa !36
  store i32 16, ptr %31, align 8, !tbaa !47
  br label %Vec_IntPush.exit

46:                                               ; preds = %36
  %47 = shl nuw nsw i32 %33, 1
  %48 = getelementptr inbounds nuw i8, ptr %31, i64 8
  %49 = load ptr, ptr %48, align 8, !tbaa !36
  %.not9.i9.i = icmp eq ptr %49, null
  %50 = zext nneg i32 %47 to i64
  %51 = shl nuw nsw i64 %50, 2
  br i1 %.not9.i9.i, label %54, label %52

52:                                               ; preds = %46
  %53 = tail call ptr @realloc(ptr noundef nonnull %49, i64 noundef %51) #29
  br label %56

54:                                               ; preds = %46
  %55 = tail call noalias ptr @malloc(i64 noundef %51) #28
  br label %56

56:                                               ; preds = %54, %52
  %57 = phi ptr [ %53, %52 ], [ %55, %54 ]
  store ptr %57, ptr %48, align 8, !tbaa !36
  store i32 %47, ptr %31, align 8, !tbaa !47
  br label %Vec_IntPush.exit

Vec_IntPush.exit:                                 ; preds = %.Vec_IntGrow.exit10_crit_edge.i, %Vec_IntGrow.exit.i, %56
  %58 = phi ptr [ %.pre.i, %.Vec_IntGrow.exit10_crit_edge.i ], [ %57, %56 ], [ %45, %Vec_IntGrow.exit.i ]
  %59 = and i64 %.lcssa22, -2
  %60 = ptrtoint ptr %.val14 to i64
  %61 = sub i64 %59, %60
  %62 = sdiv exact i64 %61, 12
  %63 = trunc i64 %62 to i32
  %64 = shl nsw i32 %63, 1
  %65 = or disjoint i32 %64, %.lcssa
  %66 = load i32, ptr %32, align 4, !tbaa !45
  %67 = add nsw i32 %66, 1
  store i32 %67, ptr %32, align 4, !tbaa !45
  %68 = sext i32 %66 to i64
  %69 = getelementptr inbounds i32, ptr %58, i64 %68
  store i32 %65, ptr %69, align 4, !tbaa !38
  ret void

tailrecurse:                                      ; preds = %27
  %70 = sub nsw i64 0, %12
  %71 = getelementptr inbounds %struct.Gia_Obj_t_, ptr %.tr2124, i64 %70
  %72 = lshr i64 %.val.i, 29
  %73 = and i64 %72, 1
  %74 = ptrtoint ptr %71 to i64
  %75 = xor i64 %73, %74
  %76 = inttoptr i64 %75 to ptr
  tail call fastcc void @Gia_ManSuperCollectAnd_rec(ptr noundef nonnull %0, ptr noundef %76)
  %77 = load i64, ptr %.tr2124, align 4
  %78 = lshr i64 %77, 32
  %79 = and i64 %78, 536870911
  %80 = sub nsw i64 0, %79
  %81 = getelementptr inbounds %struct.Gia_Obj_t_, ptr %.tr2124, i64 %80
  %82 = lshr i64 %77, 61
  %83 = and i64 %82, 1
  %84 = ptrtoint ptr %81 to i64
  %85 = xor i64 %83, %84
  %86 = inttoptr i64 %85 to ptr
  %87 = and i64 %85, 1
  %.not = icmp eq i64 %87, 0
  br i1 %.not, label %9, label %Gia_ObjIsAndReal.exit.thread
}